target datalayout = "e-m:e-p270:32:32-p271:32:32-p272:64:64-i64:64-i128:128-f80:128-n8:16:32:64-S128"
target triple = "x86_64-pc-linux-gnu"

%struct.TParser = type { ptr, i32, ptr, ptr, i8, i32, ptr, i8, i8, i8, ptr, i32, i32, i32 }
%struct.TParserPosition = type { i32, i32, i32, i32, i32, i32, ptr, ptr }

; Function Attrs: nounwind uwtable
define internal void @SpecialFURL(ptr noundef %0) #0 {
  %2 = alloca ptr, align 8
  store ptr %0, ptr %2, align 8
  %3 = load ptr, ptr %2, align 8
  %4 = getelementptr inbounds nuw %struct.TParser, ptr %3, i32 0, i32 8
  store i8 1, ptr %4, align 1
  %5 = load ptr, ptr %2, align 8
  %6 = getelementptr inbounds nuw %struct.TParser, ptr %5, i32 0, i32 6
  %7 = load ptr, ptr %6, align 8
  %8 = getelementptr inbounds nuw %struct.TParserPosition, ptr %7, i32 0, i32 3
  %9 = load i32, ptr %8, align 4
  %10 = load ptr, ptr %2, align 8
  %11 = getelementptr inbounds nuw %struct.TParser, ptr %10, i32 0, i32 6
  %12 = load ptr, ptr %11, align 8
  %13 = getelementptr inbounds nuw %struct.TParserPosition, ptr %12, i32 0, i32 0
  %14 = load i32, ptr %13, align 8
  %15 = sub i32 %14, %9
  store i32 %15, ptr %13, align 8
  %16 = load ptr, ptr %2, align 8
  %17 = getelementptr inbounds nuw %struct.TParser, ptr %16, i32 0, i32 6
  %18 = load ptr, ptr %17, align 8
  %19 = getelementptr inbounds nuw %struct.TParserPosition, ptr %18, i32 0, i32 4
  %20 = load i32, ptr %19, align 8
  %21 = load ptr, ptr %2, align 8
  %22 = getelementptr inbounds nuw %struct.TParser, ptr %21, i32 0, i32 6
  %23 = load ptr, ptr %22, align 8
  %24 = getelementptr inbounds nuw %struct.TParserPosition, ptr %23, i32 0, i32 1
  %25 = load i32, ptr %24, align 4
  %26 = sub i32 %25, %20
  store i32 %26, ptr %24, align 4
  ret void
}