; Function Attrs: mustprogress nofree norecurse nosync nounwind willreturn memory(readwrite, inaccessiblemem: none) uwtable
define internal void @SpecialFURL(ptr noundef captures(none) initializes((49, 50)) %0) #11 {
  %2 = getelementptr inbounds nuw i8, ptr %0, i64 49
  store i8 1, ptr %2, align 1
  %3 = getelementptr inbounds nuw i8, ptr %0, i64 40
  %4 = load ptr, ptr %3, align 8
  %5 = getelementptr inbounds nuw i8, ptr %4, i64 12
  %6 = load i32, ptr %5, align 4
  %7 = load i32, ptr %4, align 8
  %8 = sub i32 %7, %6
  store i32 %8, ptr %4, align 8
  %9 = load ptr, ptr %3, align 8
  %10 = getelementptr inbounds nuw i8, ptr %9, i64 16
  %11 = load i32, ptr %10, align 8
  %12 = getelementptr inbounds nuw i8, ptr %9, i64 4
  %13 = load i32, ptr %12, align 4
  %14 = sub i32 %13, %11
  store i32 %14, ptr %12, align 4
  ret void
}